target datalayout = "e-m:e-p270:32:32-p271:32:32-p272:64:64-i64:64-i128:128-f80:128-n8:16:32:64-S128"
target triple = "x86_64-unknown-linux-gnu"

%class.scoped_refptr = type { ptr }
%"class.net::QuicCompressedCertsCache::CachedCerts" = type { %class.scoped_refptr, %"class.std::__cxx11::basic_string", %"class.std::__cxx11::basic_string", %"class.std::__cxx11::basic_string" }
%"class.std::__cxx11::basic_string" = type { %"struct.std::__cxx11::basic_string<char>::_Alloc_hider", i64, %union.anon }
%"struct.std::__cxx11::basic_string<char>::_Alloc_hider" = type { ptr }
%union.anon = type { i64, [8 x i8] }

; Function Attrs: mustprogress nounwind uwtable
define linkonce_odr dso_local void @_ZN13scoped_refptrIN3net11ProofSource5ChainEEC2Ev(ptr noundef nonnull align 8 dereferenceable(8) %this) unnamed_addr #1 comdat align 2 {
entry:
  %this.addr = alloca ptr, align 8
  store ptr %this, ptr %this.addr, align 8
  %this1 = load ptr, ptr %this.addr, align 8
  %ptr_ = getelementptr inbounds %class.scoped_refptr, ptr %this1, i32 0, i32 0
  store ptr null, ptr %ptr_, align 8
  ret void
}

; Function Attrs: mustprogress uwtable
define dso_local void @_ZN3net24QuicCompressedCertsCache11CachedCertsC2Ev(ptr noundef nonnull align 8 dereferenceable(104) %this) unnamed_addr #0 align 2 {
entry:
  %this.addr = alloca ptr, align 8
  store ptr %this, ptr %this.addr, align 8
  %this1 = load ptr, ptr %this.addr, align 8
  %chain_ = getelementptr inbounds %"class.net::QuicCompressedCertsCache::CachedCerts", ptr %this1, i32 0, i32 0
  call void @_ZN13scoped_refptrIN3net11ProofSource5ChainEEC2Ev(ptr noundef nonnull align 8 dereferenceable(8) %chain_)
  %client_common_set_hashes_ = getelementptr inbounds %"class.net::QuicCompressedCertsCache::CachedCerts", ptr %this1, i32 0, i32 1
  call void @_ZNSt7__cxx1112basic_stringIcSt11char_traitsIcESaIcEEC1Ev(ptr noundef nonnull align 8 dereferenceable(32) %client_common_set_hashes_) #11
  %client_cached_cert_hashes_ = getelementptr inbounds %"class.net::QuicCompressedCertsCache::CachedCerts", ptr %this1, i32 0, i32 2
  call void @_ZNSt7__cxx1112basic_stringIcSt11char_traitsIcESaIcEEC1Ev(ptr noundef nonnull align 8 dereferenceable(32) %client_cached_cert_hashes_) #11
  %compressed_cert_ = getelementptr inbounds %"class.net::QuicCompressedCertsCache::CachedCerts", ptr %this1, i32 0, i32 3
  call void @_ZNSt7__cxx1112basic_stringIcSt11char_traitsIcESaIcEEC1Ev(ptr noundef nonnull align 8 dereferenceable(32) %compressed_cert_) #11
  ret void
}