; Function Attrs: mustprogress nounwind uwtable
define dso_local void @_ZN3net24QuicCompressedCertsCache11CachedCertsC2Ev(ptr noundef nonnull align 8 dereferenceable(104) %this) unnamed_addr #2 align 2 {
entry:
  store ptr null, ptr %this, align 8
  %client_common_set_hashes_ = getelementptr inbounds i8, ptr %this, i64 8
  tail call void @_ZNSt7__cxx1112basic_stringIcSt11char_traitsIcESaIcEEC1Ev(ptr noundef nonnull align 8 dereferenceable(32) %client_common_set_hashes_) #13
  %client_cached_cert_hashes_ = getelementptr inbounds i8, ptr %this, i64 40
  tail call void @_ZNSt7__cxx1112basic_stringIcSt11char_traitsIcESaIcEEC1Ev(ptr noundef nonnull align 8 dereferenceable(32) %client_cached_cert_hashes_) #13
  %compressed_cert_ = getelementptr inbounds i8, ptr %this, i64 72
  tail call void @_ZNSt7__cxx1112basic_stringIcSt11char_traitsIcESaIcEEC1Ev(ptr noundef nonnull align 8 dereferenceable(32) %compressed_cert_) #13
  ret void
}